target datalayout = "e-m:e-p270:32:32-p271:32:32-p272:64:64-i64:64-i128:128-f80:128-n8:16:32:64-S128"
target triple = "x86_64-pc-linux-gnu"

%struct.AVProbeData = type { ptr, ptr, i32, ptr }
%struct.AVRational = type { i32, i32 }
%struct.AVFormatContext = type { ptr, ptr, ptr, ptr, ptr, i32, i32, ptr, i32, ptr, i32, ptr, ptr, i64, i64, i64, i32, i32, i32, i64, i64, ptr, i32, i32, ptr, i32, i32, i32, i32, ptr, i64, i32, i32, %struct.AVIOInterruptCB, i32, i32, i32, i32, i64, i32, i32, i32, i32, i32, i32, i32, i32, i32, i32, i32, i32, i64, i32, i32, i32, i32, i32, ptr, ptr, ptr, ptr, i32, ptr, ptr, ptr, ptr, i32, ptr, ptr, i64, ptr, ptr, ptr, i64 }
%struct.AVIOInterruptCB = type { ptr, ptr }
%struct.MlvContext = type { [101 x ptr], [2 x i32], i32, i64, i32, i32, [9 x [2 x i32]] }
%struct.AVStream = type { ptr, i32, i32, ptr, ptr, %struct.AVRational, i64, i64, i64, i32, i32, %struct.AVRational, ptr, %struct.AVRational, %struct.AVPacket, i32, %struct.AVRational, i32 }
%struct.AVPacket = type { ptr, i64, i64, ptr, i32, i32, i32, ptr, i32, i64, i64, ptr, ptr, %struct.AVRational }
%struct.AVCodecParameters = type { i32, i32, i32, ptr, i32, ptr, i32, i32, i64, i32, i32, i32, i32, i32, i32, %struct.AVRational, %struct.AVRational, i32, i32, i32, i32, i32, i32, i32, %struct.AVChannelLayout, i32, i32, i32, i32, i32, i32 }
%struct.AVChannelLayout = type { i32, i32, %union.anon, ptr }
%union.anon = type { i64 }
%struct.FFStream = type { %struct.AVStream, ptr, i32, ptr, i32, ptr, i32, %struct.anon, i32, i32, %struct.FFFrac, ptr, ptr, i32, i32, i64, i64, i32, i32, i32, i64, i64, i64, i32, i64, i64, i64, i32, i32, [17 x i64], [17 x i8], [17 x i64], i64, i8, i8, %struct.AVRational, %struct.AVProbeData, ptr, i64, i32, i32, i32, ptr, i32, i32, i64, i64, ptr, %struct.AVRational }
%struct.anon = type { ptr, i32 }
%struct.FFFrac = type { i64, i64, i64 }
%struct.AVIndexEntry = type { i64, i64, i32, i32 }

@.str.56 = private unnamed_addr constant [42 x i8] c"could not find index entry for frame %ld\0A\00", align 1

; Function Attrs: alwaysinline nounwind uwtable
define internal ptr @ffstream(ptr noundef %0) #5 {
  %2 = alloca ptr, align 8
  store ptr %0, ptr %2, align 8, !tbaa !34
  %3 = load ptr, ptr %2, align 8, !tbaa !34
  ret ptr %3
}

; Function Attrs: nounwind uwtable
define internal i32 @read_packet(ptr noundef %0, ptr noundef %1) #0 {
  %3 = alloca i32, align 4
  %4 = alloca ptr, align 8
  %5 = alloca ptr, align 8
  %6 = alloca ptr, align 8
  %7 = alloca ptr, align 8
  %8 = alloca ptr, align 8
  %9 = alloca ptr, align 8
  %10 = alloca i32, align 4
  %11 = alloca i32, align 4
  %12 = alloca i32, align 4
  %13 = alloca i32, align 4
  %14 = alloca i32, align 4
  store ptr %0, ptr %4, align 8, !tbaa !14
  store ptr %1, ptr %5, align 8, !tbaa !78
  call void @llvm.lifetime.start.p0(i64 8, ptr %6) #10
  %15 = load ptr, ptr %4, align 8, !tbaa !14
  %16 = getelementptr inbounds nuw %struct.AVFormatContext, ptr %15, i32 0, i32 3
  %17 = load ptr, ptr %16, align 8, !tbaa !16
  store ptr %17, ptr %6, align 8, !tbaa !31
  call void @llvm.lifetime.start.p0(i64 8, ptr %7) #10
  call void @llvm.lifetime.start.p0(i64 8, ptr %8) #10
  call void @llvm.lifetime.start.p0(i64 8, ptr %9) #10
  call void @llvm.lifetime.start.p0(i64 4, ptr %10) #10
  call void @llvm.lifetime.start.p0(i64 4, ptr %11) #10
  call void @llvm.lifetime.start.p0(i64 4, ptr %12) #10
  call void @llvm.lifetime.start.p0(i64 4, ptr %13) #10
  %18 = load ptr, ptr %4, align 8, !tbaa !14
  %19 = getelementptr inbounds nuw %struct.AVFormatContext, ptr %18, i32 0, i32 6
  %20 = load i32, ptr %19, align 4, !tbaa !80
  %21 = icmp ne i32 %20, 0
  br i1 %21, label %23, label %22

22:                                               ; preds = %2
  store i32 -541478725, ptr %3, align 4
  store i32 1, ptr %14, align 4
  br label %231

23:                                               ; preds = %2
  %24 = load ptr, ptr %4, align 8, !tbaa !14
  %25 = getelementptr inbounds nuw %struct.AVFormatContext, ptr %24, i32 0, i32 7
  %26 = load ptr, ptr %25, align 8, !tbaa !81
  %27 = load ptr, ptr %6, align 8, !tbaa !31
  %28 = getelementptr inbounds nuw %struct.MlvContext, ptr %27, i32 0, i32 2
  %29 = load i32, ptr %28, align 8, !tbaa !82
  %30 = sext i32 %29 to i64
  %31 = getelementptr inbounds ptr, ptr %26, i64 %30
  %32 = load ptr, ptr %31, align 8, !tbaa !34
  store ptr %32, ptr %8, align 8, !tbaa !34
  %33 = load ptr, ptr %8, align 8, !tbaa !34
  %34 = call ptr @ffstream(ptr noundef %33)
  store ptr %34, ptr %9, align 8, !tbaa !36
  %35 = load ptr, ptr %6, align 8, !tbaa !31
  %36 = getelementptr inbounds nuw %struct.MlvContext, ptr %35, i32 0, i32 3
  %37 = load i64, ptr %36, align 8, !tbaa !84
  %38 = load ptr, ptr %8, align 8, !tbaa !34
  %39 = getelementptr inbounds nuw %struct.AVStream, ptr %38, i32 0, i32 7
  %40 = load i64, ptr %39, align 8, !tbaa !74
  %41 = icmp uge i64 %37, %40
  br i1 %41, label %42, label %43

42:                                               ; preds = %23
  store i32 -541478725, ptr %3, align 4
  store i32 1, ptr %14, align 4
  br label %231

43:                                               ; preds = %23
  %44 = load ptr, ptr %8, align 8, !tbaa !34
  %45 = load ptr, ptr %6, align 8, !tbaa !31
  %46 = getelementptr inbounds nuw %struct.MlvContext, ptr %45, i32 0, i32 3
  %47 = load i64, ptr %46, align 8, !tbaa !84
  %48 = call i32 @av_index_search_timestamp(ptr noundef %44, i64 noundef %47, i32 noundef 4)
  store i32 %48, ptr %10, align 4, !tbaa !38
  %49 = load i32, ptr %10, align 4, !tbaa !38
  %50 = icmp slt i32 %49, 0
  br i1 %50, label %51, label %56

51:                                               ; preds = %43
  %52 = load ptr, ptr %4, align 8, !tbaa !14
  %53 = load ptr, ptr %6, align 8, !tbaa !31
  %54 = getelementptr inbounds nuw %struct.MlvContext, ptr %53, i32 0, i32 3
  %55 = load i64, ptr %54, align 8, !tbaa !84
  call void (ptr, i32, ptr, ...) @av_log(ptr noundef %52, i32 noundef 16, ptr noundef @.str.56, i64 noundef %55)
  store i32 -5, ptr %3, align 4
  store i32 1, ptr %14, align 4
  br label %231

56:                                               ; preds = %43
  %57 = load ptr, ptr %6, align 8, !tbaa !31
  %58 = getelementptr inbounds nuw %struct.MlvContext, ptr %57, i32 0, i32 0
  %59 = load ptr, ptr %9, align 8, !tbaa !36
  %60 = getelementptr inbounds nuw %struct.FFStream, ptr %59, i32 0, i32 12
  %61 = load ptr, ptr %60, align 8, !tbaa !75
  %62 = load i32, ptr %10, align 4, !tbaa !38
  %63 = sext i32 %62 to i64
  %64 = getelementptr inbounds %struct.AVIndexEntry, ptr %61, i64 %63
  %65 = getelementptr inbounds nuw %struct.AVIndexEntry, ptr %64, i32 0, i32 2
  %66 = load i32, ptr %65, align 8
  %67 = ashr i32 %66, 2
  %68 = sext i32 %67 to i64
  %69 = getelementptr inbounds [101 x ptr], ptr %58, i64 0, i64 %68
  %70 = load ptr, ptr %69, align 8, !tbaa !33
  store ptr %70, ptr %7, align 8, !tbaa !33
  %71 = load ptr, ptr %7, align 8, !tbaa !33
  %72 = icmp ne ptr %71, null
  br i1 %72, label %74, label %73

73:                                               ; preds = %56
  store i32 -1329874258, ptr %11, align 4, !tbaa !38
  br label %210

74:                                               ; preds = %56
  %75 = load ptr, ptr %7, align 8, !tbaa !33
  %76 = load ptr, ptr %9, align 8, !tbaa !36
  %77 = getelementptr inbounds nuw %struct.FFStream, ptr %76, i32 0, i32 12
  %78 = load ptr, ptr %77, align 8, !tbaa !75
  %79 = load i32, ptr %10, align 4, !tbaa !38
  %80 = sext i32 %79 to i64
  %81 = getelementptr inbounds %struct.AVIndexEntry, ptr %78, i64 %80
  %82 = getelementptr inbounds nuw %struct.AVIndexEntry, ptr %81, i32 0, i32 0
  %83 = load i64, ptr %82, align 8, !tbaa !76
  %84 = call i64 @avio_seek(ptr noundef %75, i64 noundef %83, i32 noundef 0)
  %85 = load ptr, ptr %7, align 8, !tbaa !33
  %86 = call i64 @avio_skip(ptr noundef %85, i64 noundef 4)
  %87 = load ptr, ptr %7, align 8, !tbaa !33
  %88 = call i32 @avio_rl32(ptr noundef %87)
  store i32 %88, ptr %12, align 4, !tbaa !38
  %89 = load i32, ptr %12, align 4, !tbaa !38
  %90 = icmp ult i32 %89, 16
  br i1 %90, label %91, label %92

91:                                               ; preds = %74
  store i32 -1094995529, ptr %3, align 4
  store i32 1, ptr %14, align 4
  br label %231

92:                                               ; preds = %74
  %93 = load ptr, ptr %7, align 8, !tbaa !33
  %94 = call i64 @avio_skip(ptr noundef %93, i64 noundef 12)
  %95 = load i32, ptr %12, align 4, !tbaa !38
  %96 = sub i32 %95, 12
  store i32 %96, ptr %12, align 4, !tbaa !38
  %97 = load ptr, ptr %8, align 8, !tbaa !34
  %98 = getelementptr inbounds nuw %struct.AVStream, ptr %97, i32 0, i32 3
  %99 = load ptr, ptr %98, align 8, !tbaa !48
  %100 = getelementptr inbounds nuw %struct.AVCodecParameters, ptr %99, i32 0, i32 0
  %101 = load i32, ptr %100, align 8, !tbaa !49
  %102 = icmp eq i32 %101, 0
  br i1 %102, label %103, label %112

103:                                              ; preds = %92
  %104 = load i32, ptr %12, align 4, !tbaa !38
  %105 = icmp ult i32 %104, 8
  br i1 %105, label %106, label %107

106:                                              ; preds = %103
  store i32 -1094995529, ptr %3, align 4
  store i32 1, ptr %14, align 4
  br label %231

107:                                              ; preds = %103
  %108 = load ptr, ptr %7, align 8, !tbaa !33
  %109 = call i64 @avio_skip(ptr noundef %108, i64 noundef 8)
  %110 = load i32, ptr %12, align 4, !tbaa !38
  %111 = sub i32 %110, 8
  store i32 %111, ptr %12, align 4, !tbaa !38
  br label %112

112:                                              ; preds = %107, %92
  %113 = load ptr, ptr %7, align 8, !tbaa !33
  %114 = call i32 @avio_rl32(ptr noundef %113)
  store i32 %114, ptr %13, align 4, !tbaa !38
  %115 = load i32, ptr %12, align 4, !tbaa !38
  %116 = zext i32 %115 to i64
  %117 = load i32, ptr %13, align 4, !tbaa !38
  %118 = zext i32 %117 to i64
  %119 = add nsw i64 %118, 4
  %120 = icmp slt i64 %116, %119
  br i1 %120, label %121, label %122

121:                                              ; preds = %112
  store i32 -1094995529, ptr %3, align 4
  store i32 1, ptr %14, align 4
  br label %231

122:                                              ; preds = %112
  %123 = load ptr, ptr %7, align 8, !tbaa !33
  %124 = load i32, ptr %13, align 4, !tbaa !38
  %125 = zext i32 %124 to i64
  %126 = call i64 @avio_skip(ptr noundef %123, i64 noundef %125)
  %127 = load i32, ptr %13, align 4, !tbaa !38
  %128 = load i32, ptr %12, align 4, !tbaa !38
  %129 = sub i32 %128, %127
  store i32 %129, ptr %12, align 4, !tbaa !38
  %130 = load ptr, ptr %6, align 8, !tbaa !31
  %131 = getelementptr inbounds nuw %struct.MlvContext, ptr %130, i32 0, i32 1
  %132 = load ptr, ptr %8, align 8, !tbaa !34
  %133 = getelementptr inbounds nuw %struct.AVStream, ptr %132, i32 0, i32 2
  %134 = load i32, ptr %133, align 4, !tbaa !40
  %135 = sext i32 %134 to i64
  %136 = getelementptr inbounds [2 x i32], ptr %131, i64 0, i64 %135
  %137 = load i32, ptr %136, align 4, !tbaa !38
  %138 = and i32 %137, 192
  %139 = icmp ne i32 %138, 0
  br i1 %139, label %140, label %141

140:                                              ; preds = %122
  store i32 -1163346256, ptr %11, align 4, !tbaa !38
  br label %194

141:                                              ; preds = %122
  %142 = load ptr, ptr %8, align 8, !tbaa !34
  %143 = getelementptr inbounds nuw %struct.AVStream, ptr %142, i32 0, i32 3
  %144 = load ptr, ptr %143, align 8, !tbaa !48
  %145 = getelementptr inbounds nuw %struct.AVCodecParameters, ptr %144, i32 0, i32 0
  %146 = load i32, ptr %145, align 8, !tbaa !49
  %147 = icmp eq i32 %146, 0
  br i1 %147, label %148, label %187

148:                                              ; preds = %141
  %149 = load ptr, ptr %8, align 8, !tbaa !34
  %150 = getelementptr inbounds nuw %struct.AVStream, ptr %149, i32 0, i32 3
  %151 = load ptr, ptr %150, align 8, !tbaa !48
  %152 = getelementptr inbounds nuw %struct.AVCodecParameters, ptr %151, i32 0, i32 1
  %153 = load i32, ptr %152, align 4, !tbaa !52
  %154 = icmp eq i32 %153, 96
  br i1 %154, label %155, label %163

155:                                              ; preds = %148
  %156 = load ptr, ptr %4, align 8, !tbaa !14
  %157 = load ptr, ptr %8, align 8, !tbaa !34
  %158 = load ptr, ptr %7, align 8, !tbaa !33
  %159 = load ptr, ptr %5, align 8, !tbaa !78
  %160 = load i32, ptr %12, align 4, !tbaa !38
  %161 = zext i32 %160 to i64
  %162 = call i32 @get_packet_lj92(ptr noundef %156, ptr noundef %157, ptr noundef %158, ptr noundef %159, i64 noundef %161)
  store i32 %162, ptr %11, align 4, !tbaa !38
  br label %186

163:                                              ; preds = %148
  %164 = load ptr, ptr %7, align 8, !tbaa !33
  %165 = load ptr, ptr %5, align 8, !tbaa !78
  %166 = load ptr, ptr %8, align 8, !tbaa !34
  %167 = getelementptr inbounds nuw %struct.AVStream, ptr %166, i32 0, i32 3
  %168 = load ptr, ptr %167, align 8, !tbaa !48
  %169 = getelementptr inbounds nuw %struct.AVCodecParameters, ptr %168, i32 0, i32 13
  %170 = load i32, ptr %169, align 8, !tbaa !85
  %171 = load ptr, ptr %8, align 8, !tbaa !34
  %172 = getelementptr inbounds nuw %struct.AVStream, ptr %171, i32 0, i32 3
  %173 = load ptr, ptr %172, align 8, !tbaa !48
  %174 = getelementptr inbounds nuw %struct.AVCodecParameters, ptr %173, i32 0, i32 14
  %175 = load i32, ptr %174, align 4, !tbaa !86
  %176 = mul nsw i32 %170, %175
  %177 = load ptr, ptr %8, align 8, !tbaa !34
  %178 = getelementptr inbounds nuw %struct.AVStream, ptr %177, i32 0, i32 3
  %179 = load ptr, ptr %178, align 8, !tbaa !48
  %180 = getelementptr inbounds nuw %struct.AVCodecParameters, ptr %179, i32 0, i32 9
  %181 = load i32, ptr %180, align 8, !tbaa !87
  %182 = mul nsw i32 %176, %181
  %183 = add nsw i32 %182, 7
  %184 = ashr i32 %183, 3
  %185 = call i32 @av_get_packet(ptr noundef %164, ptr noundef %165, i32 noundef %184)
  store i32 %185, ptr %11, align 4, !tbaa !38
  br label %186

186:                                              ; preds = %163, %155
  br label %193

187:                                              ; preds = %141
  %188 = load ptr, ptr %7, align 8, !tbaa !33
  %189 = load ptr, ptr %5, align 8, !tbaa !78
  %190 = load i32, ptr %12, align 4, !tbaa !38
  %191 = sub i32 %190, 4
  %192 = call i32 @av_get_packet(ptr noundef %188, ptr noundef %189, i32 noundef %191)
  store i32 %192, ptr %11, align 4, !tbaa !38
  br label %193

193:                                              ; preds = %187, %186
  br label %194

194:                                              ; preds = %193, %140
  %195 = load i32, ptr %11, align 4, !tbaa !38
  %196 = icmp slt i32 %195, 0
  br i1 %196, label %197, label %199

197:                                              ; preds = %194
  %198 = load i32, ptr %11, align 4, !tbaa !38
  store i32 %198, ptr %3, align 4
  store i32 1, ptr %14, align 4
  br label %231

199:                                              ; preds = %194
  %200 = load ptr, ptr %6, align 8, !tbaa !31
  %201 = getelementptr inbounds nuw %struct.MlvContext, ptr %200, i32 0, i32 2
  %202 = load i32, ptr %201, align 8, !tbaa !82
  %203 = load ptr, ptr %5, align 8, !tbaa !78
  %204 = getelementptr inbounds nuw %struct.AVPacket, ptr %203, i32 0, i32 5
  store i32 %202, ptr %204, align 4, !tbaa !88
  %205 = load ptr, ptr %6, align 8, !tbaa !31
  %206 = getelementptr inbounds nuw %struct.MlvContext, ptr %205, i32 0, i32 3
  %207 = load i64, ptr %206, align 8, !tbaa !84
  %208 = load ptr, ptr %5, align 8, !tbaa !78
  %209 = getelementptr inbounds nuw %struct.AVPacket, ptr %208, i32 0, i32 1
  store i64 %207, ptr %209, align 8, !tbaa !89
  store i32 0, ptr %11, align 4, !tbaa !38
  br label %210

210:                                              ; preds = %199, %73
  %211 = load ptr, ptr %6, align 8, !tbaa !31
  %212 = getelementptr inbounds nuw %struct.MlvContext, ptr %211, i32 0, i32 2
  %213 = load i32, ptr %212, align 8, !tbaa !82
  %214 = add nsw i32 %213, 1
  store i32 %214, ptr %212, align 8, !tbaa !82
  %215 = load ptr, ptr %6, align 8, !tbaa !31
  %216 = getelementptr inbounds nuw %struct.MlvContext, ptr %215, i32 0, i32 2
  %217 = load i32, ptr %216, align 8, !tbaa !82
  %218 = load ptr, ptr %4, align 8, !tbaa !14
  %219 = getelementptr inbounds nuw %struct.AVFormatContext, ptr %218, i32 0, i32 6
  %220 = load i32, ptr %219, align 4, !tbaa !80
  %221 = icmp eq i32 %217, %220
  br i1 %221, label %222, label %229

222:                                              ; preds = %210
  %223 = load ptr, ptr %6, align 8, !tbaa !31
  %224 = getelementptr inbounds nuw %struct.MlvContext, ptr %223, i32 0, i32 2
  store i32 0, ptr %224, align 8, !tbaa !82
  %225 = load ptr, ptr %6, align 8, !tbaa !31
  %226 = getelementptr inbounds nuw %struct.MlvContext, ptr %225, i32 0, i32 3
  %227 = load i64, ptr %226, align 8, !tbaa !84
  %228 = add i64 %227, 1
  store i64 %228, ptr %226, align 8, !tbaa !84
  br label %229

229:                                              ; preds = %222, %210
  %230 = load i32, ptr %11, align 4, !tbaa !38
  store i32 %230, ptr %3, align 4
  store i32 1, ptr %14, align 4
  br label %231

231:                                              ; preds = %229, %197, %121, %106, %91, %51, %42, %22
  call void @llvm.lifetime.end.p0(i64 4, ptr %13) #10
  call void @llvm.lifetime.end.p0(i64 4, ptr %12) #10
  call void @llvm.lifetime.end.p0(i64 4, ptr %11) #10
  call void @llvm.lifetime.end.p0(i64 4, ptr %10) #10
  call void @llvm.lifetime.end.p0(i64 8, ptr %9) #10
  call void @llvm.lifetime.end.p0(i64 8, ptr %8) #10
  call void @llvm.lifetime.end.p0(i64 8, ptr %7) #10
  call void @llvm.lifetime.end.p0(i64 8, ptr %6) #10
  %232 = load i32, ptr %3, align 4
  ret i32 %232
}