; Function Attrs: nounwind uwtable
define internal range(i32 -2147483648, 1) i32 @read_packet(ptr noundef %0, ptr noundef %1) #1 {
  %3 = getelementptr inbounds nuw i8, ptr %0, i64 24
  %4 = load ptr, ptr %3, align 8, !tbaa !12
  %5 = getelementptr inbounds nuw i8, ptr %0, i64 44
  %6 = load i32, ptr %5, align 4, !tbaa !66
  %.not = icmp eq i32 %6, 0
  br i1 %.not, label %.thread, label %7

7:                                                ; preds = %2
  %8 = getelementptr inbounds nuw i8, ptr %0, i64 48
  %9 = load ptr, ptr %8, align 8, !tbaa !67
  %10 = getelementptr inbounds nuw i8, ptr %4, i64 816
  %11 = load i32, ptr %10, align 8, !tbaa !68
  %12 = sext i32 %11 to i64
  %13 = getelementptr inbounds ptr, ptr %9, i64 %12
  %14 = load ptr, ptr %13, align 8, !tbaa !70
  %15 = getelementptr inbounds nuw i8, ptr %4, i64 824
  %16 = load i64, ptr %15, align 8, !tbaa !72
  %17 = getelementptr inbounds nuw i8, ptr %14, i64 48
  %18 = load i64, ptr %17, align 8, !tbaa !62
  %.not71 = icmp ult i64 %16, %18
  br i1 %.not71, label %19, label %.thread

19:                                               ; preds = %7
  %20 = tail call i32 @av_index_search_timestamp(ptr noundef nonnull %14, i64 noundef %16, i32 noundef 4) #11
  %21 = icmp slt i32 %20, 0
  br i1 %21, label %22, label %24

22:                                               ; preds = %19
  %23 = load i64, ptr %15, align 8, !tbaa !72
  tail call void (ptr, i32, ptr, ...) @av_log(ptr noundef nonnull %0, i32 noundef 16, ptr noundef nonnull @.str.56, i64 noundef %23) #11
  br label %.thread

24:                                               ; preds = %19
  %25 = getelementptr inbounds nuw i8, ptr %14, i64 320
  %26 = load ptr, ptr %25, align 8, !tbaa !63
  %27 = zext nneg i32 %20 to i64
  %28 = getelementptr inbounds nuw %struct.AVIndexEntry, ptr %26, i64 %27
  %29 = getelementptr inbounds nuw i8, ptr %28, i64 16
  %30 = load i32, ptr %29, align 8
  %31 = ashr i32 %30, 2
  %32 = sext i32 %31 to i64
  %33 = getelementptr inbounds [101 x ptr], ptr %4, i64 0, i64 %32
  %34 = load ptr, ptr %33, align 8, !tbaa !45
  %.not72 = icmp eq ptr %34, null
  br i1 %.not72, label %._crit_edge, label %35

._crit_edge:                                      ; preds = %24
  %.pre = load i32, ptr %10, align 8, !tbaa !68
  br label %102

35:                                               ; preds = %24
  %36 = load i64, ptr %28, align 8, !tbaa !64
  %37 = tail call i64 @avio_seek(ptr noundef nonnull %34, i64 noundef %36, i32 noundef 0) #11
  %38 = tail call i64 @avio_skip(ptr noundef nonnull %34, i64 noundef 4) #11
  %39 = tail call i32 @avio_rl32(ptr noundef nonnull %34) #11
  %40 = icmp ult i32 %39, 16
  br i1 %40, label %.thread, label %41

41:                                               ; preds = %35
  %42 = tail call i64 @avio_skip(ptr noundef nonnull %34, i64 noundef 12) #11
  %43 = add i32 %39, -12
  %44 = getelementptr inbounds nuw i8, ptr %14, i64 16
  %45 = load ptr, ptr %44, align 8, !tbaa !37
  %46 = load i32, ptr %45, align 8, !tbaa !38
  %47 = icmp eq i32 %46, 0
  br i1 %47, label %48, label %53

48:                                               ; preds = %41
  %49 = icmp ult i32 %43, 8
  br i1 %49, label %.thread, label %50

50:                                               ; preds = %48
  %51 = tail call i64 @avio_skip(ptr noundef nonnull %34, i64 noundef 8) #11
  %52 = add i32 %39, -20
  br label %53

53:                                               ; preds = %50, %41
  %.064 = phi i32 [ %52, %50 ], [ %43, %41 ]
  %54 = tail call i32 @avio_rl32(ptr noundef nonnull %34) #11
  %55 = zext i32 %.064 to i64
  %56 = zext i32 %54 to i64
  %57 = add nuw nsw i64 %56, 4
  %58 = icmp samesign ugt i64 %57, %55
  br i1 %58, label %.thread, label %59

59:                                               ; preds = %53
  %60 = tail call i64 @avio_skip(ptr noundef nonnull %34, i64 noundef %56) #11
  %61 = sub i32 %.064, %54
  %62 = getelementptr inbounds nuw i8, ptr %4, i64 808
  %63 = getelementptr inbounds nuw i8, ptr %14, i64 12
  %64 = load i32, ptr %63, align 4, !tbaa !29
  %65 = sext i32 %64 to i64
  %66 = getelementptr inbounds [2 x i32], ptr %62, i64 0, i64 %65
  %67 = load i32, ptr %66, align 4, !tbaa !28
  %68 = and i32 %67, 192
  %.not73 = icmp eq i32 %68, 0
  br i1 %.not73, label %69, label %.thread

69:                                               ; preds = %59
  %70 = load ptr, ptr %44, align 8, !tbaa !37
  %71 = load i32, ptr %70, align 8, !tbaa !38
  %72 = icmp eq i32 %71, 0
  br i1 %72, label %73, label %92

73:                                               ; preds = %69
  %74 = getelementptr inbounds nuw i8, ptr %70, i64 4
  %75 = load i32, ptr %74, align 4, !tbaa !41
  %76 = icmp eq i32 %75, 96
  br i1 %76, label %77, label %80

77:                                               ; preds = %73
  %78 = zext i32 %61 to i64
  %.val = load ptr, ptr %3, align 8, !tbaa !12
  %79 = tail call fastcc i32 @get_packet_lj92(ptr %.val, ptr noundef nonnull %14, ptr noundef %34, ptr noundef %1, i64 noundef %78)
  br label %95

80:                                               ; preds = %73
  %81 = getelementptr inbounds nuw i8, ptr %70, i64 72
  %82 = load i32, ptr %81, align 8, !tbaa !73
  %83 = getelementptr inbounds nuw i8, ptr %70, i64 76
  %84 = load i32, ptr %83, align 4, !tbaa !74
  %85 = mul nsw i32 %84, %82
  %86 = getelementptr inbounds nuw i8, ptr %70, i64 56
  %87 = load i32, ptr %86, align 8, !tbaa !75
  %88 = mul nsw i32 %85, %87
  %89 = add nsw i32 %88, 7
  %90 = ashr i32 %89, 3
  %91 = tail call i32 @av_get_packet(ptr noundef nonnull %34, ptr noundef %1, i32 noundef %90) #11
  br label %95

92:                                               ; preds = %69
  %93 = add i32 %61, -4
  %94 = tail call i32 @av_get_packet(ptr noundef nonnull %34, ptr noundef %1, i32 noundef %93) #11
  br label %95

95:                                               ; preds = %92, %80, %77
  %.1 = phi i32 [ %79, %77 ], [ %91, %80 ], [ %94, %92 ]
  %96 = icmp slt i32 %.1, 0
  br i1 %96, label %.thread, label %97

97:                                               ; preds = %95
  %98 = load i32, ptr %10, align 8, !tbaa !68
  %99 = getelementptr inbounds nuw i8, ptr %1, i64 36
  store i32 %98, ptr %99, align 4, !tbaa !76
  %100 = load i64, ptr %15, align 8, !tbaa !72
  %101 = getelementptr inbounds nuw i8, ptr %1, i64 8
  store i64 %100, ptr %101, align 8, !tbaa !77
  br label %102

102:                                              ; preds = %._crit_edge, %97
  %103 = phi i32 [ %98, %97 ], [ %.pre, %._crit_edge ]
  %.065 = phi i32 [ 0, %97 ], [ -1329874258, %._crit_edge ]
  %104 = add nsw i32 %103, 1
  store i32 %104, ptr %10, align 8, !tbaa !68
  %105 = load i32, ptr %5, align 4, !tbaa !66
  %106 = icmp eq i32 %104, %105
  br i1 %106, label %107, label %.thread

107:                                              ; preds = %102
  store i32 0, ptr %10, align 8, !tbaa !68
  %108 = load i64, ptr %15, align 8, !tbaa !72
  %109 = add i64 %108, 1
  store i64 %109, ptr %15, align 8, !tbaa !72
  br label %.thread

.thread:                                          ; preds = %59, %102, %107, %95, %53, %48, %35, %7, %2, %22
  %.0 = phi i32 [ -5, %22 ], [ -541478725, %2 ], [ -541478725, %7 ], [ -1094995529, %35 ], [ -1094995529, %48 ], [ -1094995529, %53 ], [ %.1, %95 ], [ %.065, %107 ], [ %.065, %102 ], [ -1163346256, %59 ]
  ret i32 %.0
}